; Function Attrs: mustprogress uwtable
define void @_ZN3nix7to_jsonERN8nlohmann10basic_jsonISt3mapSt6vectorNSt7__cxx1112basic_stringIcSt11char_traitsIcESaIcEEEblmdSaNS0_14adl_serializerES3_IhSaIhEEEERKNS_19ExperimentalFeatureE(ptr nocapture noundef nonnull align 8 dereferenceable(16) %0, ptr nocapture noundef nonnull readonly align 4 dereferenceable(4) %1) local_unnamed_addr #2 personality ptr @__gxx_personality_v0 {
  %3 = alloca %"class.nlohmann::basic_json", align 8
  %4 = alloca %"class.std::basic_string_view", align 8
  %5 = load i32, ptr %1, align 4
  %6 = sext i32 %5 to i64
  %7 = getelementptr inbounds [19 x %"struct.nix::ExperimentalFeatureDetails"], ptr @_ZN3nixL16xpFeatureDetailsE, i64 0, i64 %6
  %8 = getelementptr inbounds i8, ptr %7, i64 8
  %.sroa.0.0.copyload.i = load i64, ptr %8, align 8
  %.sroa.2.0..sroa_idx.i = getelementptr inbounds i8, ptr %7, i64 16
  %.sroa.2.0.copyload.i = load ptr, ptr %.sroa.2.0..sroa_idx.i, align 8
  store i64 %.sroa.0.0.copyload.i, ptr %4, align 8
  %9 = getelementptr inbounds i8, ptr %4, i64 8
  store ptr %.sroa.2.0.copyload.i, ptr %9, align 8
  store i8 0, ptr %3, align 8
  %10 = getelementptr inbounds i8, ptr %3, i64 8
  store i64 0, ptr %10, align 8
  call void @_ZN8nlohmann6detail20external_constructorILNS0_7value_tE3EE9constructINS_10basic_jsonISt3mapSt6vectorNSt7__cxx1112basic_stringIcSt11char_traitsIcESaIcEEEblmdSaNS_14adl_serializerES7_IhSaIhEEEESt17basic_string_viewIcSB_ETnNSt9enable_ifIXntsr3std7is_sameIT0_NT_8string_tEEE5valueEiE4typeELi0EEEvRSM_RKSL_(ptr noundef nonnull align 8 dereferenceable(16) %3, ptr noundef nonnull align 8 dereferenceable(16) %4)
  %11 = load i8, ptr %0, align 8
  %12 = load i8, ptr %3, align 8
  store i8 %12, ptr %0, align 8
  store i8 %11, ptr %3, align 8
  %13 = getelementptr inbounds i8, ptr %0, i64 8
  %.sroa.0.0.copyload.i.i = load ptr, ptr %13, align 8
  %14 = load i64, ptr %10, align 8
  store i64 %14, ptr %13, align 8
  store ptr %.sroa.0.0.copyload.i.i, ptr %10, align 8
  invoke void @_ZN8nlohmann10basic_jsonISt3mapSt6vectorNSt7__cxx1112basic_stringIcSt11char_traitsIcESaIcEEEblmdSaNS_14adl_serializerES2_IhSaIhEEE10json_value7destroyENS_6detail7value_tE(ptr noundef nonnull align 8 dereferenceable(8) %10, i8 noundef zeroext %11) #28
          to label %_ZN8nlohmann10basic_jsonISt3mapSt6vectorNSt7__cxx1112basic_stringIcSt11char_traitsIcESaIcEEEblmdSaNS_14adl_serializerES2_IhSaIhEEED2Ev.exit unwind label %15

15:                                               ; preds = %2
  %16 = landingpad { ptr, i32 }
          catch ptr null
  %17 = extractvalue { ptr, i32 } %16, 0
  call void @__clang_call_terminate(ptr %17) #24
  unreachable

_ZN8nlohmann10basic_jsonISt3mapSt6vectorNSt7__cxx1112basic_stringIcSt11char_traitsIcESaIcEEEblmdSaNS_14adl_serializerES2_IhSaIhEEED2Ev.exit: ; preds = %2
  ret void
}